; Function Attrs: null_pointer_is_valid sspstrong uwtable
define void @enterprises_base_custom(ptr noundef %0, i32 noundef %1) local_unnamed_addr #3 {
  %3 = load ptr, ptr @enterprises_hashtable, align 8
  %4 = zext i32 %1 to i64
  %5 = inttoptr i64 %4 to ptr
  %6 = tail call ptr @g_hash_table_lookup(ptr noundef %3, ptr noundef %5)
  %.not.i = icmp eq ptr %6, null
  br i1 %.not.i, label %7, label %try_enterprises_lookup.exit

7:                                                ; preds = %2
  %8 = tail call ptr @global_enterprises_lookup(i32 noundef %1)
  br label %try_enterprises_lookup.exit

try_enterprises_lookup.exit:                      ; preds = %2, %7
  %.0.i = phi ptr [ %8, %7 ], [ %6, %2 ]
  %9 = icmp eq ptr %.0.i, null
  %spec.store.select = select i1 %9, ptr @.str.2, ptr %.0.i
  %10 = tail call i32 (ptr, i64, i32, i64, ptr, ...) @__snprintf_chk(ptr noundef %0, i64 noundef 240, i32 noundef 2, i64 noundef -1, ptr noundef nonnull @.str.3, ptr noundef nonnull %spec.store.select, i32 noundef %1)
  ret void
}